target datalayout = "e-m:e-p270:32:32-p271:32:32-p272:64:64-i64:64-i128:128-f80:128-n8:16:32:64-S128"
target triple = "x86_64-pc-linux-gnu"

%struct.PyMutex = type { i8 }
%struct._PyRecursiveMutex = type { %struct.PyMutex, i64, i64 }

@.str = private unnamed_addr constant [35 x i8] c"unlocking mutex that is not locked\00", align 1
@__func__.PyMutex_Unlock = private unnamed_addr constant [15 x i8] c"PyMutex_Unlock\00", align 1

; Function Attrs: inlinehint nounwind uwtable
define internal zeroext i8 @_Py_atomic_load_uint8(ptr noundef %0) #2 {
  %2 = alloca ptr, align 8
  %3 = alloca i8, align 1
  store ptr %0, ptr %2, align 8, !tbaa !17
  %4 = load ptr, ptr %2, align 8, !tbaa !17
  %5 = load atomic i8, ptr %4 seq_cst, align 1
  store i8 %5, ptr %3, align 1
  %6 = load i8, ptr %3, align 1, !tbaa !13
  ret i8 %6
}

; Function Attrs: nounwind uwtable
define hidden i32 @_PyMutex_TryUnlock(ptr noundef %0) #0 {
  %2 = alloca i32, align 4
  %3 = alloca ptr, align 8
  %4 = alloca i8, align 1
  %5 = alloca i32, align 4
  store ptr %0, ptr %3, align 8, !tbaa !4
  call void @llvm.lifetime.start.p0(i64 1, ptr %4) #7
  %6 = load ptr, ptr %3, align 8, !tbaa !4
  %7 = getelementptr inbounds nuw %struct.PyMutex, ptr %6, i32 0, i32 0
  %8 = call zeroext i8 @_Py_atomic_load_uint8(ptr noundef %7)
  store i8 %8, ptr %4, align 1, !tbaa !13
  br label %9

9:                                                ; preds = %32, %1
  %10 = load i8, ptr %4, align 1, !tbaa !13
  %11 = zext i8 %10 to i32
  %12 = and i32 %11, 1
  %13 = icmp eq i32 %12, 0
  br i1 %13, label %14, label %15

14:                                               ; preds = %9
  store i32 -1, ptr %2, align 4
  store i32 1, ptr %5, align 4
  br label %33

15:                                               ; preds = %9
  %16 = load i8, ptr %4, align 1, !tbaa !13
  %17 = zext i8 %16 to i32
  %18 = and i32 %17, 2
  %19 = icmp ne i32 %18, 0
  br i1 %19, label %20, label %24

20:                                               ; preds = %15
  %21 = load ptr, ptr %3, align 8, !tbaa !4
  %22 = getelementptr inbounds nuw %struct.PyMutex, ptr %21, i32 0, i32 0
  %23 = load ptr, ptr %3, align 8, !tbaa !4
  call void @_PyParkingLot_Unpark(ptr noundef %22, ptr noundef @mutex_unpark, ptr noundef %23)
  store i32 0, ptr %2, align 4
  store i32 1, ptr %5, align 4
  br label %33

24:                                               ; preds = %15
  %25 = load ptr, ptr %3, align 8, !tbaa !4
  %26 = getelementptr inbounds nuw %struct.PyMutex, ptr %25, i32 0, i32 0
  %27 = call i32 @_Py_atomic_compare_exchange_uint8(ptr noundef %26, ptr noundef %4, i8 noundef zeroext 0)
  %28 = icmp ne i32 %27, 0
  br i1 %28, label %29, label %30

29:                                               ; preds = %24
  store i32 0, ptr %2, align 4
  store i32 1, ptr %5, align 4
  br label %33

30:                                               ; preds = %24
  br label %31

31:                                               ; preds = %30
  br label %32

32:                                               ; preds = %31
  br label %9

33:                                               ; preds = %29, %20, %14
  call void @llvm.lifetime.end.p0(i64 1, ptr %4) #7
  %34 = load i32, ptr %2, align 4
  ret i32 %34
}

; Function Attrs: nounwind uwtable
define dso_local void @PyMutex_Unlock(ptr noundef %0) #0 {
  %2 = alloca ptr, align 8
  store ptr %0, ptr %2, align 8, !tbaa !4
  %3 = load ptr, ptr %2, align 8, !tbaa !4
  %4 = call i32 @_PyMutex_TryUnlock(ptr noundef %3)
  %5 = icmp slt i32 %4, 0
  br i1 %5, label %6, label %7

6:                                                ; preds = %1
  call void @_Py_FatalErrorFunc(ptr noundef @__func__.PyMutex_Unlock, ptr noundef @.str) #8
  unreachable

7:                                                ; preds = %1
  ret void
}

; Function Attrs: inlinehint nounwind uwtable
define internal i32 @_Py_atomic_compare_exchange_uint8(ptr noundef %0, ptr noundef %1, i8 noundef zeroext %2) #2 {
  %4 = alloca ptr, align 8
  %5 = alloca ptr, align 8
  %6 = alloca i8, align 1
  %7 = alloca i8, align 1
  %8 = alloca i8, align 1
  store ptr %0, ptr %4, align 8, !tbaa !17
  store ptr %1, ptr %5, align 8, !tbaa !17
  store i8 %2, ptr %6, align 1, !tbaa !13
  %9 = load ptr, ptr %4, align 8, !tbaa !17
  %10 = load ptr, ptr %5, align 8, !tbaa !17
  %11 = load i8, ptr %6, align 1, !tbaa !13
  store i8 %11, ptr %7, align 1, !tbaa !13
  %12 = load i8, ptr %10, align 1
  %13 = load i8, ptr %7, align 1
  %14 = cmpxchg ptr %9, i8 %12, i8 %13 seq_cst seq_cst, align 1
  %15 = extractvalue { i8, i1 } %14, 0
  %16 = extractvalue { i8, i1 } %14, 1
  br i1 %16, label %18, label %17

17:                                               ; preds = %3
  store i8 %15, ptr %10, align 1
  br label %18

18:                                               ; preds = %17, %3
  %19 = zext i1 %16 to i8
  store i8 %19, ptr %8, align 1, !tbaa !19
  %20 = load i8, ptr %8, align 1, !tbaa !19, !range !21, !noundef !22
  %21 = trunc i8 %20 to i1
  %22 = zext i1 %21 to i32
  ret i32 %22
}

; Function Attrs: inlinehint nounwind uwtable
define internal i64 @_Py_atomic_load_ullong_relaxed(ptr noundef %0) #2 {
  %2 = alloca ptr, align 8
  %3 = alloca i64, align 8
  store ptr %0, ptr %2, align 8, !tbaa !40
  %4 = load ptr, ptr %2, align 8, !tbaa !40
  %5 = load atomic i64, ptr %4 monotonic, align 8
  store i64 %5, ptr %3, align 8
  %6 = load i64, ptr %3, align 8, !tbaa !35
  ret i64 %6
}

; Function Attrs: inlinehint nounwind uwtable
define internal void @_PyMutex_Unlock(ptr noundef %0) #2 {
  %2 = alloca ptr, align 8
  %3 = alloca i8, align 1
  store ptr %0, ptr %2, align 8, !tbaa !4
  call void @llvm.lifetime.start.p0(i64 1, ptr %3) #7
  store i8 1, ptr %3, align 1, !tbaa !13
  %4 = load ptr, ptr %2, align 8, !tbaa !4
  %5 = getelementptr inbounds nuw %struct.PyMutex, ptr %4, i32 0, i32 0
  %6 = call i32 @_Py_atomic_compare_exchange_uint8(ptr noundef %5, ptr noundef %3, i8 noundef zeroext 0)
  %7 = icmp ne i32 %6, 0
  br i1 %7, label %10, label %8

8:                                                ; preds = %1
  %9 = load ptr, ptr %2, align 8, !tbaa !4
  call void @PyMutex_Unlock(ptr noundef %9)
  br label %10

10:                                               ; preds = %8, %1
  call void @llvm.lifetime.end.p0(i64 1, ptr %3) #7
  ret void
}

; Function Attrs: inlinehint nounwind uwtable
define internal void @_Py_atomic_store_ullong_relaxed(ptr noundef %0, i64 noundef %1) #2 {
  %3 = alloca ptr, align 8
  %4 = alloca i64, align 8
  %5 = alloca i64, align 8
  store ptr %0, ptr %3, align 8, !tbaa !40
  store i64 %1, ptr %4, align 8, !tbaa !35
  %6 = load ptr, ptr %3, align 8, !tbaa !40
  %7 = load i64, ptr %4, align 8, !tbaa !35
  store i64 %7, ptr %5, align 8, !tbaa !35
  %8 = load i64, ptr %5, align 8
  store atomic i64 %8, ptr %6 monotonic, align 8
  ret void
}

; Function Attrs: nounwind uwtable
define internal i32 @recursive_mutex_is_owned_by(ptr noundef %0, i64 noundef %1) #0 {
  %3 = alloca ptr, align 8
  %4 = alloca i64, align 8
  store ptr %0, ptr %3, align 8, !tbaa !25
  store i64 %1, ptr %4, align 8, !tbaa !35
  %5 = load ptr, ptr %3, align 8, !tbaa !25
  %6 = getelementptr inbounds nuw %struct._PyRecursiveMutex, ptr %5, i32 0, i32 1
  %7 = call i64 @_Py_atomic_load_ullong_relaxed(ptr noundef %6)
  %8 = load i64, ptr %4, align 8, !tbaa !35
  %9 = icmp eq i64 %7, %8
  %10 = zext i1 %9 to i32
  ret i32 %10
}

; Function Attrs: nounwind uwtable
define hidden i32 @_PyRecursiveMutex_TryUnlock(ptr noundef %0) #0 {
  %2 = alloca i32, align 4
  %3 = alloca ptr, align 8
  %4 = alloca i64, align 8
  %5 = alloca i32, align 4
  store ptr %0, ptr %3, align 8, !tbaa !25
  call void @llvm.lifetime.start.p0(i64 8, ptr %4) #7
  %6 = call i64 @PyThread_get_thread_ident_ex()
  store i64 %6, ptr %4, align 8, !tbaa !35
  %7 = load ptr, ptr %3, align 8, !tbaa !25
  %8 = load i64, ptr %4, align 8, !tbaa !35
  %9 = call i32 @recursive_mutex_is_owned_by(ptr noundef %7, i64 noundef %8)
  %10 = icmp ne i32 %9, 0
  br i1 %10, label %12, label %11

11:                                               ; preds = %1
  store i32 -1, ptr %2, align 4
  store i32 1, ptr %5, align 4
  br label %27

12:                                               ; preds = %1
  %13 = load ptr, ptr %3, align 8, !tbaa !25
  %14 = getelementptr inbounds nuw %struct._PyRecursiveMutex, ptr %13, i32 0, i32 2
  %15 = load i64, ptr %14, align 8, !tbaa !37
  %16 = icmp ugt i64 %15, 0
  br i1 %16, label %17, label %22

17:                                               ; preds = %12
  %18 = load ptr, ptr %3, align 8, !tbaa !25
  %19 = getelementptr inbounds nuw %struct._PyRecursiveMutex, ptr %18, i32 0, i32 2
  %20 = load i64, ptr %19, align 8, !tbaa !37
  %21 = add i64 %20, -1
  store i64 %21, ptr %19, align 8, !tbaa !37
  store i32 0, ptr %2, align 4
  store i32 1, ptr %5, align 4
  br label %27

22:                                               ; preds = %12
  %23 = load ptr, ptr %3, align 8, !tbaa !25
  %24 = getelementptr inbounds nuw %struct._PyRecursiveMutex, ptr %23, i32 0, i32 1
  call void @_Py_atomic_store_ullong_relaxed(ptr noundef %24, i64 noundef 0)
  %25 = load ptr, ptr %3, align 8, !tbaa !25
  %26 = getelementptr inbounds nuw %struct._PyRecursiveMutex, ptr %25, i32 0, i32 0
  call void @_PyMutex_Unlock(ptr noundef %26)
  store i32 0, ptr %2, align 4
  store i32 1, ptr %5, align 4
  br label %27

27:                                               ; preds = %22, %17, %11
  call void @llvm.lifetime.end.p0(i64 8, ptr %4) #7
  %28 = load i32, ptr %2, align 4
  ret i32 %28
}