; Function Attrs: nounwind uwtable
define hidden range(i32 -1, 1) i32 @_PyRecursiveMutex_TryUnlock(ptr noundef %0) local_unnamed_addr #0 {
  %2 = tail call i64 @PyThread_get_thread_ident_ex() #8
  %3 = getelementptr inbounds nuw i8, ptr %0, i64 8
  %4 = load atomic i64, ptr %3 monotonic, align 8
  %.not = icmp eq i64 %4, %2
  br i1 %.not, label %5, label %_PyMutex_Unlock.exit

5:                                                ; preds = %1
  %6 = getelementptr inbounds nuw i8, ptr %0, i64 16
  %7 = load i64, ptr %6, align 8, !tbaa !20
  %.not7 = icmp eq i64 %7, 0
  br i1 %.not7, label %10, label %8

8:                                                ; preds = %5
  %9 = add i64 %7, -1
  store i64 %9, ptr %6, align 8, !tbaa !20
  br label %_PyMutex_Unlock.exit

10:                                               ; preds = %5
  store atomic i64 0, ptr %3 monotonic, align 8
  %11 = cmpxchg ptr %0, i8 1, i8 0 seq_cst seq_cst, align 1
  %12 = extractvalue { i8, i1 } %11, 1
  br i1 %12, label %_PyMutex_Unlock.exit, label %13

13:                                               ; preds = %10
  %14 = load atomic i8, ptr %0 seq_cst, align 1
  %15 = zext i8 %14 to i32
  %16 = and i32 %15, 1
  %17 = icmp eq i32 %16, 0
  br i1 %17, label %.loopexit.i.i, label %.lr.ph.i.i.i

.lr.ph.i.i.i:                                     ; preds = %13, %_Py_atomic_compare_exchange_uint8.exit.i.i.i
  %18 = phi i32 [ %25, %_Py_atomic_compare_exchange_uint8.exit.i.i.i ], [ %15, %13 ]
  %.069.i.i.i = phi i8 [ %24, %_Py_atomic_compare_exchange_uint8.exit.i.i.i ], [ %14, %13 ]
  %19 = and i32 %18, 2
  %.not.i.i.i = icmp eq i32 %19, 0
  br i1 %.not.i.i.i, label %21, label %20

20:                                               ; preds = %.lr.ph.i.i.i
  tail call void @_PyParkingLot_Unpark(ptr noundef nonnull %0, ptr noundef nonnull @mutex_unpark, ptr noundef nonnull %0) #8
  br label %_PyMutex_Unlock.exit

21:                                               ; preds = %.lr.ph.i.i.i
  %22 = cmpxchg ptr %0, i8 %.069.i.i.i, i8 0 seq_cst seq_cst, align 1
  %23 = extractvalue { i8, i1 } %22, 1
  br i1 %23, label %_PyMutex_Unlock.exit, label %_Py_atomic_compare_exchange_uint8.exit.i.i.i

_Py_atomic_compare_exchange_uint8.exit.i.i.i:     ; preds = %21
  %24 = extractvalue { i8, i1 } %22, 0
  %25 = zext i8 %24 to i32
  %26 = and i32 %25, 1
  %27 = icmp eq i32 %26, 0
  br i1 %27, label %.loopexit.i.i, label %.lr.ph.i.i.i

.loopexit.i.i:                                    ; preds = %_Py_atomic_compare_exchange_uint8.exit.i.i.i, %13
  tail call void @_Py_FatalErrorFunc(ptr noundef nonnull @__func__.PyMutex_Unlock, ptr noundef nonnull @.str) #9
  unreachable

_PyMutex_Unlock.exit:                             ; preds = %21, %20, %10, %1, %8
  %.0 = phi i32 [ 0, %8 ], [ -1, %1 ], [ 0, %10 ], [ 0, %20 ], [ 0, %21 ]
  ret i32 %.0
}